target datalayout = "e-m:e-p270:32:32-p271:32:32-p272:64:64-i64:64-i128:128-f80:128-n8:16:32:64-S128"
target triple = "x86_64-pc-linux-gnu"

%"struct.std::atomic.18" = type { %"struct.std::__atomic_base.19" }
%"struct.std::__atomic_base.19" = type { ptr }
%"struct.std::__atomic_base.22" = type { i32 }

@.str.8 = private unnamed_addr constant [1 x i8] zeroinitializer, align 1
@_ZZN32pxrInternal_v0_24__pxrReserved__7TfDebug13_ScopedOutputEbPKcE10stackDepth = internal global { i32 } zeroinitializer, align 4
@.str.13 = private unnamed_addr constant [11 x i8] c"%*s%s --{\0A\00", align 1
@.str.14 = private unnamed_addr constant [11 x i8] c"%*s}-- %s\0A\00", align 1

; Function Attrs: mustprogress nounwind uwtable
define linkonce_odr noundef i32 @_ZStanSt12memory_orderSt23__memory_order_modifier(i32 noundef %0, i32 noundef %1) #1 comdat {
  %3 = alloca i32, align 4
  %4 = alloca i32, align 4
  store i32 %0, ptr %3, align 4
  store i32 %1, ptr %4, align 4
  %5 = load i32, ptr %3, align 4
  %6 = load i32, ptr %4, align 4
  %7 = and i32 %5, %6
  ret i32 %7
}

; Function Attrs: mustprogress nounwind uwtable
define linkonce_odr noundef i32 @_ZNSt13__atomic_baseIiEmmEv(ptr noundef nonnull align 4 dereferenceable(4) %0) #1 comdat align 2 {
  %2 = alloca ptr, align 8
  %3 = alloca i32, align 4
  %4 = alloca i32, align 4
  store ptr %0, ptr %2, align 8
  %5 = load ptr, ptr %2, align 8
  %6 = getelementptr inbounds nuw %"struct.std::__atomic_base.22", ptr %5, i32 0, i32 0
  store i32 1, ptr %3, align 4
  %7 = load i32, ptr %3, align 4
  %8 = atomicrmw sub ptr %6, i32 %7 seq_cst, align 4
  %9 = sub i32 %8, %7
  store i32 %9, ptr %4, align 4
  %10 = load i32, ptr %4, align 4
  ret i32 %10
}

; Function Attrs: mustprogress nounwind uwtable
define linkonce_odr noundef i32 @_ZNSt13__atomic_baseIiEppEv(ptr noundef nonnull align 4 dereferenceable(4) %0) #1 comdat align 2 {
  %2 = alloca ptr, align 8
  %3 = alloca i32, align 4
  %4 = alloca i32, align 4
  store ptr %0, ptr %2, align 8
  %5 = load ptr, ptr %2, align 8
  %6 = getelementptr inbounds nuw %"struct.std::__atomic_base.22", ptr %5, i32 0, i32 0
  store i32 1, ptr %3, align 4
  %7 = load i32, ptr %3, align 4
  %8 = atomicrmw add ptr %6, i32 %7 seq_cst, align 4
  %9 = add i32 %8, %7
  store i32 %9, ptr %4, align 4
  %10 = load i32, ptr %4, align 4
  ret i32 %10
}

; Function Attrs: mustprogress nounwind uwtable
define linkonce_odr noundef i32 @_ZNKSt13__atomic_baseIiEcviEv(ptr noundef nonnull align 4 dereferenceable(4) %0) #1 comdat align 2 {
  %2 = alloca ptr, align 8
  %3 = alloca i32, align 4
  %4 = alloca i32, align 4
  %5 = alloca i32, align 4
  %6 = alloca ptr, align 8
  store ptr %0, ptr %6, align 8
  %7 = load ptr, ptr %6, align 8
  store ptr %7, ptr %2, align 8
  store i32 5, ptr %3, align 4
  %8 = load ptr, ptr %2, align 8
  %9 = load i32, ptr %3, align 4
  %10 = call noundef i32 @_ZStanSt12memory_orderSt23__memory_order_modifier(i32 noundef %9, i32 noundef 65535)
  store i32 %10, ptr %4, align 4
  %11 = load i32, ptr %3, align 4
  switch i32 %11, label %12 [
    i32 1, label %14
    i32 2, label %14
    i32 5, label %16
  ]

12:                                               ; preds = %1
  %13 = load atomic i32, ptr %8 monotonic, align 4
  store i32 %13, ptr %5, align 4
  br label %18

14:                                               ; preds = %1, %1
  %15 = load atomic i32, ptr %8 acquire, align 4
  store i32 %15, ptr %5, align 4
  br label %18

16:                                               ; preds = %1
  %17 = load atomic i32, ptr %8 seq_cst, align 4
  store i32 %17, ptr %5, align 4
  br label %18

18:                                               ; preds = %16, %14, %12
  %19 = load i32, ptr %5, align 4
  ret i32 %19
}

; Function Attrs: mustprogress nounwind uwtable
define linkonce_odr noundef ptr @_ZNKSt6atomicIP8_IO_FILEE4loadESt12memory_order(ptr noundef nonnull align 8 dereferenceable(8) %0, i32 noundef %1) #1 comdat align 2 {
  %3 = alloca ptr, align 8
  %4 = alloca i32, align 4
  %5 = alloca i32, align 4
  %6 = alloca ptr, align 8
  %7 = alloca ptr, align 8
  %8 = alloca i32, align 4
  store ptr %0, ptr %7, align 8
  store i32 %1, ptr %8, align 4
  %9 = load ptr, ptr %7, align 8
  %10 = getelementptr inbounds nuw %"struct.std::atomic.18", ptr %9, i32 0, i32 0
  %11 = load i32, ptr %8, align 4
  store ptr %10, ptr %3, align 8
  store i32 %11, ptr %4, align 4
  %12 = load ptr, ptr %3, align 8
  %13 = load i32, ptr %4, align 4
  %14 = call noundef i32 @_ZStanSt12memory_orderSt23__memory_order_modifier(i32 noundef %13, i32 noundef 65535)
  store i32 %14, ptr %5, align 4
  %15 = load i32, ptr %4, align 4
  switch i32 %15, label %16 [
    i32 1, label %18
    i32 2, label %18
    i32 5, label %20
  ]

16:                                               ; preds = %2
  %17 = load atomic i64, ptr %12 monotonic, align 8
  store i64 %17, ptr %6, align 8
  br label %22

18:                                               ; preds = %2, %2
  %19 = load atomic i64, ptr %12 acquire, align 8
  store i64 %19, ptr %6, align 8
  br label %22

20:                                               ; preds = %2
  %21 = load atomic i64, ptr %12 seq_cst, align 8
  store i64 %21, ptr %6, align 8
  br label %22

22:                                               ; preds = %20, %18, %16
  %23 = load ptr, ptr %6, align 8
  ret ptr %23
}

; Function Attrs: mustprogress uwtable
define void @_ZN32pxrInternal_v0_24__pxrReserved__7TfDebug13_ScopedOutputEbPKc(i1 noundef zeroext %0, ptr noundef %1) #0 align 2 {
  %3 = alloca i8, align 1
  %4 = alloca ptr, align 8
  %5 = alloca ptr, align 8
  %6 = zext i1 %0 to i8
  store i8 %6, ptr %3, align 1
  store ptr %1, ptr %4, align 8
  %7 = call noundef nonnull align 8 dereferenceable(8) ptr @_ZN32pxrInternal_v0_24__pxrReserved__L14_GetOutputFileEv()
  %8 = call noundef ptr @_ZNKSt6atomicIP8_IO_FILEE4loadESt12memory_order(ptr noundef nonnull align 8 dereferenceable(8) %7, i32 noundef 5) #11
  store ptr %8, ptr %5, align 8
  %9 = load i8, ptr %3, align 1
  %10 = trunc i8 %9 to i1
  br i1 %10, label %11, label %18

11:                                               ; preds = %2
  %12 = load ptr, ptr %5, align 8
  %13 = call noundef i32 @_ZNKSt13__atomic_baseIiEcviEv(ptr noundef nonnull align 4 dereferenceable(4) @_ZZN32pxrInternal_v0_24__pxrReserved__7TfDebug13_ScopedOutputEbPKcE10stackDepth) #11
  %14 = mul nsw i32 2, %13
  %15 = load ptr, ptr %4, align 8
  %16 = call i32 (ptr, ptr, ...) @fprintf(ptr noundef %12, ptr noundef @.str.13, i32 noundef %14, ptr noundef @.str.8, ptr noundef %15) #11
  %17 = call noundef i32 @_ZNSt13__atomic_baseIiEppEv(ptr noundef nonnull align 4 dereferenceable(4) @_ZZN32pxrInternal_v0_24__pxrReserved__7TfDebug13_ScopedOutputEbPKcE10stackDepth) #11
  br label %25

18:                                               ; preds = %2
  %19 = call noundef i32 @_ZNSt13__atomic_baseIiEmmEv(ptr noundef nonnull align 4 dereferenceable(4) @_ZZN32pxrInternal_v0_24__pxrReserved__7TfDebug13_ScopedOutputEbPKcE10stackDepth) #11
  %20 = load ptr, ptr %5, align 8
  %21 = call noundef i32 @_ZNKSt13__atomic_baseIiEcviEv(ptr noundef nonnull align 4 dereferenceable(4) @_ZZN32pxrInternal_v0_24__pxrReserved__7TfDebug13_ScopedOutputEbPKcE10stackDepth) #11
  %22 = mul nsw i32 2, %21
  %23 = load ptr, ptr %4, align 8
  %24 = call i32 (ptr, ptr, ...) @fprintf(ptr noundef %20, ptr noundef @.str.14, i32 noundef %22, ptr noundef @.str.8, ptr noundef %23) #11
  br label %25

25:                                               ; preds = %18, %11
  ret void
}