; Function Attrs: mustprogress uwtable
define void @_ZN32pxrInternal_v0_24__pxrReserved__7TfDebug13_ScopedOutputEbPKc(i1 noundef zeroext %0, ptr noundef %1) local_unnamed_addr #0 align 2 {
  tail call fastcc void @_ZN32pxrInternal_v0_24__pxrReserved__L14_GetOutputFileEv()
  %3 = load atomic i64, ptr @_ZZN32pxrInternal_v0_24__pxrReserved__L14_GetOutputFileEvE11_outputFile seq_cst, align 8
  %.0.i = inttoptr i64 %3 to ptr
  br i1 %0, label %4, label %9

4:                                                ; preds = %2
  %5 = load atomic i32, ptr @_ZZN32pxrInternal_v0_24__pxrReserved__7TfDebug13_ScopedOutputEbPKcE10stackDepth seq_cst, align 4
  %6 = shl nsw i32 %5, 1
  %7 = tail call i32 (ptr, ptr, ...) @fprintf(ptr noundef %.0.i, ptr noundef nonnull @.str.13, i32 noundef %6, ptr noundef nonnull @.str.8, ptr noundef %1) #12
  %8 = atomicrmw add ptr @_ZZN32pxrInternal_v0_24__pxrReserved__7TfDebug13_ScopedOutputEbPKcE10stackDepth, i32 1 seq_cst, align 4
  br label %14

9:                                                ; preds = %2
  %10 = atomicrmw sub ptr @_ZZN32pxrInternal_v0_24__pxrReserved__7TfDebug13_ScopedOutputEbPKcE10stackDepth, i32 1 seq_cst, align 4
  %11 = load atomic i32, ptr @_ZZN32pxrInternal_v0_24__pxrReserved__7TfDebug13_ScopedOutputEbPKcE10stackDepth seq_cst, align 4
  %12 = shl nsw i32 %11, 1
  %13 = tail call i32 (ptr, ptr, ...) @fprintf(ptr noundef %.0.i, ptr noundef nonnull @.str.14, i32 noundef %12, ptr noundef nonnull @.str.8, ptr noundef %1) #12
  br label %14

14:                                               ; preds = %9, %4
  ret void
}